; Function Attrs: mustprogress uwtable
define internal noundef zeroext i1 @"_ZNSt17_Function_handlerIFbRKN4lean4exprEEZNS0_L9mark_usedEjPS2_S3_PbE3$_0E9_M_invokeERKSt9_Any_dataS3_"(ptr noundef nonnull readonly align 8 captures(none) dereferenceable(16) %0, ptr noundef nonnull readonly align 8 captures(none) dereferenceable(8) %1) #0 align 2 {
  %.val = load ptr, ptr %0, align 8, !tbaa !91
  %3 = load ptr, ptr %1, align 8, !tbaa !3
  %4 = getelementptr i8, ptr %3, i64 4
  %.val.i.i.i.i.i = load i32, ptr %4, align 4
  %5 = lshr i32 %.val.i.i.i.i.i, 13
  %6 = and i32 %5, 2040
  %7 = getelementptr inbounds nuw i8, ptr %3, i64 8
  %8 = zext nneg i32 %6 to i64
  %9 = getelementptr inbounds nuw i8, ptr %7, i64 %8
  %10 = load i64, ptr %9, align 8, !tbaa !43
  %11 = and i64 %10, 1099511627776
  %.not.i.i.i = icmp eq i64 %11, 0
  br i1 %.not.i.i.i, label %"_ZSt10__invoke_rIbRZN4leanL9mark_usedEjPKNS0_4exprERS2_PbE3$_0JS4_EENSt9enable_ifIXntsr7is_voidIT_EE5valueES9_E4typeEOT0_DpOT1_.exit", label %12

12:                                               ; preds = %2
  %.mask.i.i.i.i = and i32 %.val.i.i.i.i.i, -16777216
  %13 = icmp eq i32 %.mask.i.i.i.i, 16777216
  br i1 %13, label %.preheader.i.i.i, label %"_ZSt10__invoke_rIbRZN4leanL9mark_usedEjPKNS0_4exprERS2_PbE3$_0JS4_EENSt9enable_ifIXntsr7is_voidIT_EE5valueES9_E4typeEOT0_DpOT1_.exit"

.preheader.i.i.i:                                 ; preds = %12
  %14 = load ptr, ptr %.val, align 8, !tbaa !518
  %15 = load i32, ptr %14, align 4, !tbaa !138
  %.not16.i.i.i = icmp eq i32 %15, 0
  br i1 %.not16.i.i.i, label %"_ZSt10__invoke_rIbRZN4leanL9mark_usedEjPKNS0_4exprERS2_PbE3$_0JS4_EENSt9enable_ifIXntsr7is_voidIT_EE5valueES9_E4typeEOT0_DpOT1_.exit", label %.lr.ph.i.i.i

.lr.ph.i.i.i:                                     ; preds = %.preheader.i.i.i
  %16 = getelementptr inbounds nuw i8, ptr %.val, i64 8
  br label %22

17:                                               ; preds = %22
  %indvars.iv.next.i.i.i = add nuw nsw i64 %indvars.iv.i.i.i, 1
  %18 = load ptr, ptr %.val, align 8, !tbaa !518
  %19 = load i32, ptr %18, align 4, !tbaa !138
  %20 = zext i32 %19 to i64
  %21 = icmp samesign ult i64 %indvars.iv.next.i.i.i, %20
  br i1 %21, label %22, label %"_ZSt10__invoke_rIbRZN4leanL9mark_usedEjPKNS0_4exprERS2_PbE3$_0JS4_EENSt9enable_ifIXntsr7is_voidIT_EE5valueES9_E4typeEOT0_DpOT1_.exit", !llvm.loop !520

22:                                               ; preds = %17, %.lr.ph.i.i.i
  %indvars.iv.i.i.i = phi i64 [ 0, %.lr.ph.i.i.i ], [ %indvars.iv.next.i.i.i, %17 ]
  %23 = load ptr, ptr %16, align 8, !tbaa !521
  %24 = load ptr, ptr %23, align 8, !tbaa !139
  %25 = getelementptr inbounds nuw %"class.lean::expr", ptr %24, i64 %indvars.iv.i.i.i
  %26 = load ptr, ptr %25, align 8, !tbaa !3
  %27 = getelementptr inbounds nuw i8, ptr %26, i64 8
  %28 = load ptr, ptr %1, align 8, !tbaa !3
  %29 = getelementptr inbounds nuw i8, ptr %28, i64 8
  %30 = load ptr, ptr %27, align 8, !tbaa !3
  %31 = load ptr, ptr %29, align 8, !tbaa !3
  %32 = tail call zeroext i8 @lean_name_eq(ptr noundef %30, ptr noundef %31)
  %.not14.i.i.i = icmp eq i8 %32, 0
  br i1 %.not14.i.i.i, label %17, label %33

33:                                               ; preds = %22
  %34 = getelementptr inbounds nuw i8, ptr %.val, i64 16
  %35 = load ptr, ptr %34, align 8, !tbaa !522
  %36 = load ptr, ptr %35, align 8, !tbaa !140
  %37 = getelementptr inbounds nuw i8, ptr %36, i64 %indvars.iv.i.i.i
  store i8 1, ptr %37, align 1, !tbaa !131
  br label %"_ZSt10__invoke_rIbRZN4leanL9mark_usedEjPKNS0_4exprERS2_PbE3$_0JS4_EENSt9enable_ifIXntsr7is_voidIT_EE5valueES9_E4typeEOT0_DpOT1_.exit"

"_ZSt10__invoke_rIbRZN4leanL9mark_usedEjPKNS0_4exprERS2_PbE3$_0JS4_EENSt9enable_ifIXntsr7is_voidIT_EE5valueES9_E4typeEOT0_DpOT1_.exit": ; preds = %17, %2, %12, %.preheader.i.i.i, %33
  %.010.i.i.i = phi i1 [ false, %33 ], [ false, %2 ], [ true, %12 ], [ true, %.preheader.i.i.i ], [ true, %17 ]
  ret i1 %.010.i.i.i
}